;--------------------------------------------------------
; File Created by SDCC : free open source ANSI-C Compiler
; Version 3.0.1 #6083 (Dec 17 2010) (MINGW32)
; This file was generated Wed Apr 08 20:13:11 2026
;--------------------------------------------------------
	.module w83
	.optsdcc -mmcs51 --model-small
	
;--------------------------------------------------------
; Public variables in this module
;--------------------------------------------------------
	.globl _seg_code
	.globl _main
	.globl _int1_isr
	.globl _int0_isr
	.globl _delay_ms
	.globl _TF2
	.globl _EXF2
	.globl _RCLK
	.globl _TCLK
	.globl _EXEN2
	.globl _TR2
	.globl _C_T2
	.globl _CP_RL2
	.globl _T2CON_7
	.globl _T2CON_6
	.globl _T2CON_5
	.globl _T2CON_4
	.globl _T2CON_3
	.globl _T2CON_2
	.globl _T2CON_1
	.globl _T2CON_0
	.globl _PT2
	.globl _ET2
	.globl _CY
	.globl _AC
	.globl _F0
	.globl _RS1
	.globl _RS0
	.globl _OV
	.globl _F1
	.globl _P
	.globl _PS
	.globl _PT1
	.globl _PX1
	.globl _PT0
	.globl _PX0
	.globl _RD
	.globl _WR
	.globl _T1
	.globl _T0
	.globl _INT1
	.globl _INT0
	.globl _TXD
	.globl _RXD
	.globl _P3_7
	.globl _P3_6
	.globl _P3_5
	.globl _P3_4
	.globl _P3_3
	.globl _P3_2
	.globl _P3_1
	.globl _P3_0
	.globl _EA
	.globl _ES
	.globl _ET1
	.globl _EX1
	.globl _ET0
	.globl _EX0
	.globl _P2_7
	.globl _P2_6
	.globl _P2_5
	.globl _P2_4
	.globl _P2_3
	.globl _P2_2
	.globl _P2_1
	.globl _P2_0
	.globl _SM0
	.globl _SM1
	.globl _SM2
	.globl _REN
	.globl _TB8
	.globl _RB8
	.globl _TI
	.globl _RI
	.globl _P1_7
	.globl _P1_6
	.globl _P1_5
	.globl _P1_4
	.globl _P1_3
	.globl _P1_2
	.globl _P1_1
	.globl _P1_0
	.globl _TF1
	.globl _TR1
	.globl _TF0
	.globl _TR0
	.globl _IE1
	.globl _IT1
	.globl _IE0
	.globl _IT0
	.globl _P0_7
	.globl _P0_6
	.globl _P0_5
	.globl _P0_4
	.globl _P0_3
	.globl _P0_2
	.globl _P0_1
	.globl _P0_0
	.globl _TH2
	.globl _TL2
	.globl _RCAP2H
	.globl _RCAP2L
	.globl _T2CON
	.globl _B
	.globl _ACC
	.globl _PSW
	.globl _IP
	.globl _P3
	.globl _IE
	.globl _P2
	.globl _SBUF
	.globl _SCON
	.globl _P1
	.globl _TH1
	.globl _TH0
	.globl _TL1
	.globl _TL0
	.globl _TMOD
	.globl _TCON
	.globl _PCON
	.globl _DPH
	.globl _DPL
	.globl _SP
	.globl _P0
	.globl _counter
;--------------------------------------------------------
; special function registers
;--------------------------------------------------------
	.area RSEG    (ABS,DATA)
	.org 0x0000
_P0	=	0x0080
_SP	=	0x0081
_DPL	=	0x0082
_DPH	=	0x0083
_PCON	=	0x0087
_TCON	=	0x0088
_TMOD	=	0x0089
_TL0	=	0x008a
_TL1	=	0x008b
_TH0	=	0x008c
_TH1	=	0x008d
_P1	=	0x0090
_SCON	=	0x0098
_SBUF	=	0x0099
_P2	=	0x00a0
_IE	=	0x00a8
_P3	=	0x00b0
_IP	=	0x00b8
_PSW	=	0x00d0
_ACC	=	0x00e0
_B	=	0x00f0
_T2CON	=	0x00c8
_RCAP2L	=	0x00ca
_RCAP2H	=	0x00cb
_TL2	=	0x00cc
_TH2	=	0x00cd
;--------------------------------------------------------
; special function bits
;--------------------------------------------------------
	.area RSEG    (ABS,DATA)
	.org 0x0000
_P0_0	=	0x0080
_P0_1	=	0x0081
_P0_2	=	0x0082
_P0_3	=	0x0083
_P0_4	=	0x0084
_P0_5	=	0x0085
_P0_6	=	0x0086
_P0_7	=	0x0087
_IT0	=	0x0088
_IE0	=	0x0089
_IT1	=	0x008a
_IE1	=	0x008b
_TR0	=	0x008c
_TF0	=	0x008d
_TR1	=	0x008e
_TF1	=	0x008f
_P1_0	=	0x0090
_P1_1	=	0x0091
_P1_2	=	0x0092
_P1_3	=	0x0093
_P1_4	=	0x0094
_P1_5	=	0x0095
_P1_6	=	0x0096
_P1_7	=	0x0097
_RI	=	0x0098
_TI	=	0x0099
_RB8	=	0x009a
_TB8	=	0x009b
_REN	=	0x009c
_SM2	=	0x009d
_SM1	=	0x009e
_SM0	=	0x009f
_P2_0	=	0x00a0
_P2_1	=	0x00a1
_P2_2	=	0x00a2
_P2_3	=	0x00a3
_P2_4	=	0x00a4
_P2_5	=	0x00a5
_P2_6	=	0x00a6
_P2_7	=	0x00a7
_EX0	=	0x00a8
_ET0	=	0x00a9
_EX1	=	0x00aa
_ET1	=	0x00ab
_ES	=	0x00ac
_EA	=	0x00af
_P3_0	=	0x00b0
_P3_1	=	0x00b1
_P3_2	=	0x00b2
_P3_3	=	0x00b3
_P3_4	=	0x00b4
_P3_5	=	0x00b5
_P3_6	=	0x00b6
_P3_7	=	0x00b7
_RXD	=	0x00b0
_TXD	=	0x00b1
_INT0	=	0x00b2
_INT1	=	0x00b3
_T0	=	0x00b4
_T1	=	0x00b5
_WR	=	0x00b6
_RD	=	0x00b7
_PX0	=	0x00b8
_PT0	=	0x00b9
_PX1	=	0x00ba
_PT1	=	0x00bb
_PS	=	0x00bc
_P	=	0x00d0
_F1	=	0x00d1
_OV	=	0x00d2
_RS0	=	0x00d3
_RS1	=	0x00d4
_F0	=	0x00d5
_AC	=	0x00d6
_CY	=	0x00d7
_ET2	=	0x00ad
_PT2	=	0x00bd
_T2CON_0	=	0x00c8
_T2CON_1	=	0x00c9
_T2CON_2	=	0x00ca
_T2CON_3	=	0x00cb
_T2CON_4	=	0x00cc
_T2CON_5	=	0x00cd
_T2CON_6	=	0x00ce
_T2CON_7	=	0x00cf
_CP_RL2	=	0x00c8
_C_T2	=	0x00c9
_TR2	=	0x00ca
_EXEN2	=	0x00cb
_TCLK	=	0x00cc
_RCLK	=	0x00cd
_EXF2	=	0x00ce
_TF2	=	0x00cf
;--------------------------------------------------------
; overlayable register banks
;--------------------------------------------------------
	.area REG_BANK_0	(REL,OVR,DATA)
	.ds 8
;--------------------------------------------------------
; overlayable bit register bank
;--------------------------------------------------------
	.area BIT_BANK	(REL,OVR,DATA)
bits:
	.ds 1
	b0 = bits[0]
	b1 = bits[1]
	b2 = bits[2]
	b3 = bits[3]
	b4 = bits[4]
	b5 = bits[5]
	b6 = bits[6]
	b7 = bits[7]
;--------------------------------------------------------
; internal ram data
;--------------------------------------------------------
	.area DSEG    (DATA)
_counter::
	.ds 1
;--------------------------------------------------------
; overlayable items in internal ram 
;--------------------------------------------------------
	.area OSEG    (OVR,DATA)
;--------------------------------------------------------
; Stack segment in internal ram 
;--------------------------------------------------------
	.area	SSEG	(DATA)
__start__stack:
	.ds	1

;--------------------------------------------------------
; indirectly addressable internal ram data
;--------------------------------------------------------
	.area ISEG    (DATA)
;--------------------------------------------------------
; absolute internal ram data
;--------------------------------------------------------
	.area IABS    (ABS,DATA)
	.area IABS    (ABS,DATA)
;--------------------------------------------------------
; bit data
;--------------------------------------------------------
	.area BSEG    (BIT)
;--------------------------------------------------------
; paged external ram data
;--------------------------------------------------------
	.area PSEG    (PAG,XDATA)
;--------------------------------------------------------
; external ram data
;--------------------------------------------------------
	.area XSEG    (XDATA)
;--------------------------------------------------------
; absolute external ram data
;--------------------------------------------------------
	.area XABS    (ABS,XDATA)
;--------------------------------------------------------
; external initialized ram data
;--------------------------------------------------------
	.area XISEG   (XDATA)
	.area HOME    (CODE)
	.area GSINIT0 (CODE)
	.area GSINIT1 (CODE)
	.area GSINIT2 (CODE)
	.area GSINIT3 (CODE)
	.area GSINIT4 (CODE)
	.area GSINIT5 (CODE)
	.area GSINIT  (CODE)
	.area GSFINAL (CODE)
	.area CSEG    (CODE)
;--------------------------------------------------------
; interrupt vector 
;--------------------------------------------------------
	.area HOME    (CODE)
__interrupt_vect:
	ljmp	__sdcc_gsinit_startup
	ljmp	_int0_isr
	.ds	5
	reti
	.ds	7
	ljmp	_int1_isr
;--------------------------------------------------------
; global & static initialisations
;--------------------------------------------------------
	.area HOME    (CODE)
	.area GSINIT  (CODE)
	.area GSFINAL (CODE)
	.area GSINIT  (CODE)
	.globl __sdcc_gsinit_startup
	.globl __sdcc_program_startup
	.globl __start__stack
	.globl __mcs51_genXINIT
	.globl __mcs51_genXRAMCLEAR
	.globl __mcs51_genRAMCLEAR
;	D:\microweek8asm\w83.c:8: unsigned char counter = 75; // ???????????
	mov	_counter,#0x4B
	.area GSFINAL (CODE)
	ljmp	__sdcc_program_startup
;--------------------------------------------------------
; Home
;--------------------------------------------------------
	.area HOME    (CODE)
	.area HOME    (CODE)
__sdcc_program_startup:
	lcall	_main
;	return from main will lock up
	sjmp .
;--------------------------------------------------------
; code
;--------------------------------------------------------
	.area CSEG    (CODE)
;------------------------------------------------------------
;Allocation info for local variables in function 'delay_ms'
;------------------------------------------------------------
;ms                        Allocated to registers r2 r3 
;i                         Allocated to registers r4 r5 
;j                         Allocated to registers r6 r7 
;------------------------------------------------------------
;	D:\microweek8asm\w83.c:14: void delay_ms(unsigned int ms) {
;	-----------------------------------------
;	 function delay_ms
;	-----------------------------------------
_delay_ms:
	ar2 = 0x02
	ar3 = 0x03
	ar4 = 0x04
	ar5 = 0x05
	ar6 = 0x06
	ar7 = 0x07
	ar0 = 0x00
	ar1 = 0x01
	mov	r2,dpl
	mov	r3,dph
;	D:\microweek8asm\w83.c:16: for(i = 0; i < ms; i++)
	mov	r4,#0x00
	mov	r5,#0x00
00104$:
	clr	c
	mov	a,r4
	subb	a,r2
	mov	a,r5
	subb	a,r3
	jnc	00108$
;	D:\microweek8asm\w83.c:17: for(j = 0; j < 120; j++); 
	mov	r6,#0x78
	mov	r7,#0x00
00103$:
	dec	r6
	cjne	r6,#0xff,00117$
	dec	r7
00117$:
	mov	a,r6
	orl	a,r7
	jnz	00103$
;	D:\microweek8asm\w83.c:16: for(i = 0; i < ms; i++)
	inc	r4
	cjne	r4,#0x00,00104$
	inc	r5
	sjmp	00104$
00108$:
	ret
;------------------------------------------------------------
;Allocation info for local variables in function 'int0_isr'
;------------------------------------------------------------
;------------------------------------------------------------
;	D:\microweek8asm\w83.c:23: void int0_isr(void) __interrupt(0) {
;	-----------------------------------------
;	 function int0_isr
;	-----------------------------------------
_int0_isr:
	push	bits
	push	acc
	push	b
	push	dpl
	push	dph
	push	(0+2)
	push	(0+3)
	push	(0+4)
	push	(0+5)
	push	(0+6)
	push	(0+7)
	push	(0+0)
	push	(0+1)
	push	psw
	mov	psw,#0x00
;	D:\microweek8asm\w83.c:24: counter++;
	inc	_counter
;	D:\microweek8asm\w83.c:25: if(counter > 99) {
	mov	a,#0x63
	cjne	a,_counter,00106$
00106$:
	jnc	00102$
;	D:\microweek8asm\w83.c:26: counter = 0; 
	mov	_counter,#0x00
00102$:
;	D:\microweek8asm\w83.c:28: delay_ms(750);   
	mov	dptr,#0x02EE
	lcall	_delay_ms
	pop	psw
	pop	(0+1)
	pop	(0+0)
	pop	(0+7)
	pop	(0+6)
	pop	(0+5)
	pop	(0+4)
	pop	(0+3)
	pop	(0+2)
	pop	dph
	pop	dpl
	pop	b
	pop	acc
	pop	bits
	reti
;------------------------------------------------------------
;Allocation info for local variables in function 'int1_isr'
;------------------------------------------------------------
;------------------------------------------------------------
;	D:\microweek8asm\w83.c:34: void int1_isr(void) __interrupt(2) {
;	-----------------------------------------
;	 function int1_isr
;	-----------------------------------------
_int1_isr:
	push	bits
	push	acc
	push	b
	push	dpl
	push	dph
	push	(0+2)
	push	(0+3)
	push	(0+4)
	push	(0+5)
	push	(0+6)
	push	(0+7)
	push	(0+0)
	push	(0+1)
	push	psw
	mov	psw,#0x00
;	D:\microweek8asm\w83.c:35: if(counter == 0) {
	mov	a,_counter
	jnz	00102$
;	D:\microweek8asm\w83.c:36: counter = 99; 
	mov	_counter,#0x63
	sjmp	00103$
00102$:
;	D:\microweek8asm\w83.c:38: counter--;
	dec	_counter
00103$:
;	D:\microweek8asm\w83.c:40: delay_ms(750);
	mov	dptr,#0x02EE
	lcall	_delay_ms
	pop	psw
	pop	(0+1)
	pop	(0+0)
	pop	(0+7)
	pop	(0+6)
	pop	(0+5)
	pop	(0+4)
	pop	(0+3)
	pop	(0+2)
	pop	dph
	pop	dpl
	pop	b
	pop	acc
	pop	bits
	reti
;------------------------------------------------------------
;Allocation info for local variables in function 'main'
;------------------------------------------------------------
;tens                      Allocated to registers r2 
;units                     Allocated to registers r3 
;------------------------------------------------------------
;	D:\microweek8asm\w83.c:46: void main() {
;	-----------------------------------------
;	 function main
;	-----------------------------------------
_main:
;	D:\microweek8asm\w83.c:50: IT0 = 1; 
	setb	_IT0
;	D:\microweek8asm\w83.c:51: IT1 = 1; 
	setb	_IT1
;	D:\microweek8asm\w83.c:54: EX0 = 1; // ???? INT0
	setb	_EX0
;	D:\microweek8asm\w83.c:55: EX1 = 1; // ???? INT1
	setb	_EX1
;	D:\microweek8asm\w83.c:56: EA = 1;  // ???? Global Interrupt
	setb	_EA
;	D:\microweek8asm\w83.c:58: while(1) {
00102$:
;	D:\microweek8asm\w83.c:60: tens = counter / 10;   // ??????????
	mov	b,#0x0A
	mov	a,_counter
	div	ab
	mov	r2,a
;	D:\microweek8asm\w83.c:61: units = counter % 10;  // ?????????
	mov	b,#0x0A
	mov	a,_counter
	div	ab
	mov	r3,b
;	D:\microweek8asm\w83.c:64: Right_Select = 1;      // ????????
	setb	_P1_5
;	D:\microweek8asm\w83.c:65: Segment_Port = seg_code[tens];
	mov	a,r2
	mov	dptr,#_seg_code
	movc	a,@a+dptr
	mov	_P2,a
;	D:\microweek8asm\w83.c:66: Left_Select = 0;       // ??????????
	clr	_P1_4
;	D:\microweek8asm\w83.c:67: delay_ms(5);
	mov	dptr,#0x0005
	push	ar3
	lcall	_delay_ms
	pop	ar3
;	D:\microweek8asm\w83.c:68: Left_Select = 1;       // ?????????
	setb	_P1_4
;	D:\microweek8asm\w83.c:71: Left_Select = 1;       // ?????????
	setb	_P1_4
;	D:\microweek8asm\w83.c:72: Segment_Port = seg_code[units];
	mov	a,r3
	mov	dptr,#_seg_code
	movc	a,@a+dptr
	mov	_P2,a
;	D:\microweek8asm\w83.c:73: Right_Select = 0;      // ?????????
	clr	_P1_5
;	D:\microweek8asm\w83.c:74: delay_ms(5);
	mov	dptr,#0x0005
	lcall	_delay_ms
;	D:\microweek8asm\w83.c:75: Right_Select = 1;      // ????????
	setb	_P1_5
	sjmp	00102$
	.area CSEG    (CODE)
	.area CONST   (CODE)
_seg_code:
	.db #0x3F	; 63
	.db #0x06	; 6
	.db #0x5B	; 91
	.db #0x4F	; 79	O
	.db #0x66	; 102	f
	.db #0x6D	; 109	m
	.db #0x7D	; 125
	.db #0x07	; 7
	.db #0x7F	; 127
	.db #0x6F	; 111	o
	.area XINIT   (CODE)
	.area CABS    (ABS,CODE)
